; Function Attrs: mustprogress uwtable
define void @_ZNK9grpc_core11ChannelArgs3SetESt17basic_string_viewIcSt11char_traitsIcEENS0_7PointerE(ptr dead_on_unwind noalias writable sret(%"class.grpc_core::ChannelArgs") align 8 %0, ptr noundef nonnull align 8 dereferenceable(8) %1, i64 %2, ptr %3, ptr noundef %4) local_unnamed_addr #9 align 2 personality ptr @__gxx_personality_v0 {
  %6 = alloca %"class.grpc_core::ChannelArgs::Value", align 8
  %7 = alloca %"class.grpc_core::ChannelArgs::Pointer", align 8
  call void @_ZN9grpc_core11ChannelArgs7PointerC1EOS1_(ptr noundef nonnull align 8 dereferenceable(16) %7, ptr noundef nonnull align 8 dereferenceable(16) %4) #37
  call void @_ZN9grpc_core11ChannelArgs7PointerC1EOS1_(ptr noundef nonnull align 8 dereferenceable(16) %6, ptr noundef nonnull align 8 dereferenceable(16) %7) #37
  invoke void @_ZNK9grpc_core11ChannelArgs3SetESt17basic_string_viewIcSt11char_traitsIcEENS0_5ValueE(ptr dead_on_unwind writable sret(%"class.grpc_core::ChannelArgs") align 8 %0, ptr noundef nonnull align 8 dereferenceable(8) %1, i64 %2, ptr %3, ptr noundef nonnull %6)
          to label %8 unwind label %25

8:                                                ; preds = %5
  %9 = getelementptr inbounds nuw i8, ptr %6, i64 8
  %10 = load ptr, ptr %9, align 8, !tbaa !18
  %11 = getelementptr inbounds nuw i8, ptr %10, i64 8
  %12 = load ptr, ptr %11, align 8, !tbaa !45
  %13 = load ptr, ptr %6, align 8, !tbaa !14
  invoke void %12(ptr noundef %13)
          to label %_ZN9grpc_core11ChannelArgs5ValueD2Ev.exit unwind label %14

14:                                               ; preds = %8
  %15 = landingpad { ptr, i32 }
          catch ptr null
  %16 = extractvalue { ptr, i32 } %15, 0
  call void @__clang_call_terminate(ptr %16) #38
  unreachable

_ZN9grpc_core11ChannelArgs5ValueD2Ev.exit:        ; preds = %8
  %17 = getelementptr inbounds nuw i8, ptr %7, i64 8
  %18 = load ptr, ptr %17, align 8, !tbaa !18
  %19 = getelementptr inbounds nuw i8, ptr %18, i64 8
  %20 = load ptr, ptr %19, align 8, !tbaa !45
  %21 = load ptr, ptr %7, align 8, !tbaa !14
  invoke void %20(ptr noundef %21)
          to label %_ZN9grpc_core11ChannelArgs7PointerD2Ev.exit unwind label %22

22:                                               ; preds = %_ZN9grpc_core11ChannelArgs5ValueD2Ev.exit
  %23 = landingpad { ptr, i32 }
          catch ptr null
  %24 = extractvalue { ptr, i32 } %23, 0
  call void @__clang_call_terminate(ptr %24) #38
  unreachable

_ZN9grpc_core11ChannelArgs7PointerD2Ev.exit:      ; preds = %_ZN9grpc_core11ChannelArgs5ValueD2Ev.exit
  ret void

25:                                               ; preds = %5
  %26 = landingpad { ptr, i32 }
          cleanup
  %27 = getelementptr inbounds nuw i8, ptr %6, i64 8
  %28 = load ptr, ptr %27, align 8, !tbaa !18
  %29 = getelementptr inbounds nuw i8, ptr %28, i64 8
  %30 = load ptr, ptr %29, align 8, !tbaa !45
  %31 = load ptr, ptr %6, align 8, !tbaa !14
  invoke void %30(ptr noundef %31)
          to label %_ZN9grpc_core11ChannelArgs5ValueD2Ev.exit4 unwind label %32

32:                                               ; preds = %25
  %33 = landingpad { ptr, i32 }
          catch ptr null
  %34 = extractvalue { ptr, i32 } %33, 0
  call void @__clang_call_terminate(ptr %34) #38
  unreachable

_ZN9grpc_core11ChannelArgs5ValueD2Ev.exit4:       ; preds = %25
  %35 = getelementptr inbounds nuw i8, ptr %7, i64 8
  %36 = load ptr, ptr %35, align 8, !tbaa !18
  %37 = getelementptr inbounds nuw i8, ptr %36, i64 8
  %38 = load ptr, ptr %37, align 8, !tbaa !45
  %39 = load ptr, ptr %7, align 8, !tbaa !14
  invoke void %38(ptr noundef %39)
          to label %_ZN9grpc_core11ChannelArgs7PointerD2Ev.exit5 unwind label %40

40:                                               ; preds = %_ZN9grpc_core11ChannelArgs5ValueD2Ev.exit4
  %41 = landingpad { ptr, i32 }
          catch ptr null
  %42 = extractvalue { ptr, i32 } %41, 0
  call void @__clang_call_terminate(ptr %42) #38
  unreachable

_ZN9grpc_core11ChannelArgs7PointerD2Ev.exit5:     ; preds = %_ZN9grpc_core11ChannelArgs5ValueD2Ev.exit4
  resume { ptr, i32 } %26
}